; Function Attrs: nounwind uwtable
define internal range(i32 -1, 1) i32 @H5L__get_val_by_idx_cb(ptr nocapture readnone %0, ptr nocapture readnone %1, ptr nocapture readnone %2, ptr noundef readonly %3, ptr nocapture noundef readonly %4, ptr nocapture noundef writeonly %5) #0 {
  %7 = alloca %struct.H5O_link_t, align 8
  %8 = icmp eq ptr %3, null
  br i1 %8, label %9, label %13

9:                                                ; preds = %6
  %10 = load i64, ptr @H5E_LINK_g, align 8
  %11 = load i64, ptr @H5E_NOTFOUND_g, align 8
  %12 = tail call i32 (ptr, ptr, i32, i64, i64, ptr, ...) @H5E_printf_stack(ptr noundef nonnull @.str, ptr noundef nonnull @__func__.H5L__get_val_by_idx_cb, i32 noundef 1058, i64 noundef %10, i64 noundef %11, ptr noundef nonnull @.str.51) #10
  br label %39

13:                                               ; preds = %6
  %14 = load ptr, ptr %3, align 8
  %15 = load i32, ptr %4, align 8
  %16 = getelementptr inbounds i8, ptr %4, i64 4
  %17 = load i32, ptr %16, align 4
  %18 = getelementptr inbounds i8, ptr %4, i64 8
  %19 = load i64, ptr %18, align 8
  %20 = call i32 @H5G_obj_lookup_by_idx(ptr noundef %14, i32 noundef %15, i32 noundef %17, i64 noundef %19, ptr noundef nonnull %7) #10
  %21 = icmp slt i32 %20, 0
  br i1 %21, label %22, label %26

22:                                               ; preds = %13
  %23 = load i64, ptr @H5E_LINK_g, align 8
  %24 = load i64, ptr @H5E_NOTFOUND_g, align 8
  %25 = call i32 (ptr, ptr, i32, i64, i64, ptr, ...) @H5E_printf_stack(ptr noundef nonnull @.str, ptr noundef nonnull @__func__.H5L__get_val_by_idx_cb, i32 noundef 1062, i64 noundef %23, i64 noundef %24, ptr noundef nonnull @.str.52) #10
  br label %39

26:                                               ; preds = %13
  %27 = getelementptr inbounds i8, ptr %4, i64 24
  %28 = load ptr, ptr %27, align 8
  %29 = getelementptr inbounds i8, ptr %4, i64 16
  %30 = load i64, ptr %29, align 8
  %31 = call fastcc i32 @H5L__get_val_real(ptr noundef nonnull %7, ptr noundef %28, i64 noundef %30)
  %32 = icmp slt i32 %31, 0
  br i1 %32, label %33, label %37

33:                                               ; preds = %26
  %34 = load i64, ptr @H5E_LINK_g, align 8
  %35 = load i64, ptr @H5E_CANTGET_g, align 8
  %36 = call i32 (ptr, ptr, i32, i64, i64, ptr, ...) @H5E_printf_stack(ptr noundef nonnull @.str, ptr noundef nonnull @__func__.H5L__get_val_by_idx_cb, i32 noundef 1067, i64 noundef %34, i64 noundef %35, ptr noundef nonnull @.str.48) #10
  br label %37

37:                                               ; preds = %33, %26
  %.0.ph = phi i32 [ 0, %26 ], [ -1, %33 ]
  %38 = call i32 @H5O_msg_reset(i32 noundef 6, ptr noundef nonnull %7) #10
  br label %39

39:                                               ; preds = %9, %22, %37
  %.017 = phi i32 [ %.0.ph, %37 ], [ -1, %9 ], [ -1, %22 ]
  store i32 0, ptr %5, align 4
  ret i32 %.017
}